target datalayout = "e-m:e-p270:32:32-p271:32:32-p272:64:64-i64:64-i128:128-f80:128-n8:16:32:64-S128"
target triple = "x86_64-pc-linux-gnu"

%struct.AssemblyType = type { ptr, ptr, ptr, ptr, i8 }

@stderr = external global ptr, align 8
@.str.3 = private unnamed_addr constant [3 x i8] c"%s\00", align 1
@.str.4 = private unnamed_addr constant [5 x i8] c", %s\00", align 1
@.str.5 = private unnamed_addr constant [3 x i8] c")\0A\00", align 1

; Function Attrs: mustprogress nounwind uwtable
define void @printAssemblyHeadersToStdErr() #0 {
  %1 = alloca i32, align 4
  call void @llvm.lifetime.start.p0(i64 4, ptr %1) #13
  %2 = load ptr, ptr @stderr, align 8, !tbaa !28
  %3 = load ptr, ptr @_ZL14assemblyHeader, align 16, !tbaa !23
  %4 = call i32 (ptr, ptr, ...) @fprintf(ptr noundef %2, ptr noundef @.str.3, ptr noundef %3) #13
  store i32 1, ptr %1, align 4, !tbaa !14
  br label %5

5:                                                ; preds = %16, %0
  %6 = load i32, ptr %1, align 4, !tbaa !14
  %7 = icmp slt i32 %6, 13
  br i1 %7, label %8, label %19

8:                                                ; preds = %5
  %9 = load ptr, ptr @stderr, align 8, !tbaa !28
  %10 = load i32, ptr %1, align 4, !tbaa !14
  %11 = sext i32 %10 to i64
  %12 = getelementptr inbounds [13 x %struct.AssemblyType], ptr @_ZL14assemblyHeader, i64 0, i64 %11
  %13 = getelementptr inbounds nuw %struct.AssemblyType, ptr %12, i32 0, i32 0
  %14 = load ptr, ptr %13, align 8, !tbaa !23
  %15 = call i32 (ptr, ptr, ...) @fprintf(ptr noundef %9, ptr noundef @.str.4, ptr noundef %14) #13
  br label %16

16:                                               ; preds = %8
  %17 = load i32, ptr %1, align 4, !tbaa !14
  %18 = add nsw i32 %17, 1
  store i32 %18, ptr %1, align 4, !tbaa !14
  br label %5, !llvm.loop !30

19:                                               ; preds = %5
  %20 = load ptr, ptr @stderr, align 8, !tbaa !28
  %21 = call i32 (ptr, ptr, ...) @fprintf(ptr noundef %20, ptr noundef @.str.5) #13
  call void @llvm.lifetime.end.p0(i64 4, ptr %1) #13
  ret void
}