; Function Attrs: cold mustprogress nofree nounwind uwtable
define void @printAssemblyHeadersToStdErr() local_unnamed_addr #13 {
  %1 = load ptr, ptr @stderr, align 8, !tbaa !20
  %2 = tail call i64 @fwrite(ptr nonnull @.str.29, i64 3, i64 1, ptr %1) #25
  br label %3

3:                                                ; preds = %0, %3
  %indvars.iv = phi i64 [ 1, %0 ], [ %indvars.iv.next, %3 ]
  %4 = load ptr, ptr @stderr, align 8, !tbaa !20
  %5 = getelementptr inbounds nuw [13 x %struct.AssemblyType], ptr @_ZL14assemblyHeader, i64 0, i64 %indvars.iv
  %6 = load ptr, ptr %5, align 8, !tbaa !15
  %7 = tail call i32 (ptr, ptr, ...) @fprintf(ptr noundef %4, ptr noundef nonnull @.str.4, ptr noundef %6) #26
  %indvars.iv.next = add nuw nsw i64 %indvars.iv, 1
  %exitcond.not = icmp eq i64 %indvars.iv.next, 13
  br i1 %exitcond.not, label %8, label %3, !llvm.loop !22

8:                                                ; preds = %3
  %9 = load ptr, ptr @stderr, align 8, !tbaa !20
  %10 = tail call i64 @fwrite(ptr nonnull @.str.5, i64 2, i64 1, ptr %9) #25
  ret void
}